	.text
	.file	"builtin.c"
	.globl	print                   # -- Begin function print
	.p2align	2
	.type	print,@function
print:                                  # @print
	.cfi_startproc
# %bb.0:                                # %entry
	addi	sp, sp, -16
	.cfi_def_cfa_offset 16
	sw	ra, 12(sp)
	sw	s0, 8(sp)
	.cfi_offset ra, -4
	.cfi_offset s0, -8
	addi	s0, sp, 16
	.cfi_def_cfa s0, 0
	sw	a0, -16(s0)
	lw	a1, -16(s0)
	lui	a0, %hi(.L.str)
	addi	a0, a0, %lo(.L.str)
	call	printf
	lw	s0, 8(sp)
	lw	ra, 12(sp)
	addi	sp, sp, 16
	ret
.Lfunc_end0:
	.size	print, .Lfunc_end0-print
	.cfi_endproc
                                        # -- End function
	.globl	println                 # -- Begin function println
	.p2align	2
	.type	println,@function
println:                                # @println
	.cfi_startproc
# %bb.0:                                # %entry
	addi	sp, sp, -16
	.cfi_def_cfa_offset 16
	sw	ra, 12(sp)
	sw	s0, 8(sp)
	.cfi_offset ra, -4
	.cfi_offset s0, -8
	addi	s0, sp, 16
	.cfi_def_cfa s0, 0
	sw	a0, -16(s0)
	lw	a1, -16(s0)
	lui	a0, %hi(.L.str.1)
	addi	a0, a0, %lo(.L.str.1)
	call	printf
	lw	s0, 8(sp)
	lw	ra, 12(sp)
	addi	sp, sp, 16
	ret
.Lfunc_end1:
	.size	println, .Lfunc_end1-println
	.cfi_endproc
                                        # -- End function
	.globl	printInt                # -- Begin function printInt
	.p2align	2
	.type	printInt,@function
printInt:                               # @printInt
	.cfi_startproc
# %bb.0:                                # %entry
	addi	sp, sp, -16
	.cfi_def_cfa_offset 16
	sw	ra, 12(sp)
	sw	s0, 8(sp)
	.cfi_offset ra, -4
	.cfi_offset s0, -8
	addi	s0, sp, 16
	.cfi_def_cfa s0, 0
	sw	a0, -12(s0)
	lw	a1, -12(s0)
	lui	a0, %hi(.L.str.2)
	addi	a0, a0, %lo(.L.str.2)
	call	printf
	lw	s0, 8(sp)
	lw	ra, 12(sp)
	addi	sp, sp, 16
	ret
.Lfunc_end2:
	.size	printInt, .Lfunc_end2-printInt
	.cfi_endproc
                                        # -- End function
	.globl	printlnInt              # -- Begin function printlnInt
	.p2align	2
	.type	printlnInt,@function
printlnInt:                             # @printlnInt
	.cfi_startproc
# %bb.0:                                # %entry
	addi	sp, sp, -16
	.cfi_def_cfa_offset 16
	sw	ra, 12(sp)
	sw	s0, 8(sp)
	.cfi_offset ra, -4
	.cfi_offset s0, -8
	addi	s0, sp, 16
	.cfi_def_cfa s0, 0
	sw	a0, -12(s0)
	lw	a1, -12(s0)
	lui	a0, %hi(.L.str.3)
	addi	a0, a0, %lo(.L.str.3)
	call	printf
	lw	s0, 8(sp)
	lw	ra, 12(sp)
	addi	sp, sp, 16
	ret
.Lfunc_end3:
	.size	printlnInt, .Lfunc_end3-printlnInt
	.cfi_endproc
                                        # -- End function
	.globl	getString               # -- Begin function getString
	.p2align	2
	.type	getString,@function
getString:                              # @getString
	.cfi_startproc
# %bb.0:                                # %entry
	addi	sp, sp, -16
	.cfi_def_cfa_offset 16
	sw	ra, 12(sp)
	sw	s0, 8(sp)
	.cfi_offset ra, -4
	.cfi_offset s0, -8
	addi	s0, sp, 16
	.cfi_def_cfa s0, 0
	addi	a0, zero, 256
	mv	a1, zero
	call	malloc
	sw	a0, -16(s0)
	lw	a1, -16(s0)
	lui	a0, %hi(.L.str)
	addi	a0, a0, %lo(.L.str)
	call	__isoc99_scanf
	lw	a0, -16(s0)
	lw	s0, 8(sp)
	lw	ra, 12(sp)
	addi	sp, sp, 16
	ret
.Lfunc_end4:
	.size	getString, .Lfunc_end4-getString
	.cfi_endproc
                                        # -- End function
	.globl	getInt                  # -- Begin function getInt
	.p2align	2
	.type	getInt,@function
getInt:                                 # @getInt
	.cfi_startproc
# %bb.0:                                # %entry
	addi	sp, sp, -16
	.cfi_def_cfa_offset 16
	sw	ra, 12(sp)
	sw	s0, 8(sp)
	.cfi_offset ra, -4
	.cfi_offset s0, -8
	addi	s0, sp, 16
	.cfi_def_cfa s0, 0
	lui	a0, %hi(.L.str.2)
	addi	a0, a0, %lo(.L.str.2)
	addi	a1, s0, -12
	call	__isoc99_scanf
	lw	a0, -12(s0)
	lw	s0, 8(sp)
	lw	ra, 12(sp)
	addi	sp, sp, 16
	ret
.Lfunc_end5:
	.size	getInt, .Lfunc_end5-getInt
	.cfi_endproc
                                        # -- End function
	.globl	toString                # -- Begin function toString
	.p2align	2
	.type	toString,@function
toString:                               # @toString
	.cfi_startproc
# %bb.0:                                # %entry
	addi	sp, sp, -16
	.cfi_def_cfa_offset 16
	sw	ra, 12(sp)
	sw	s0, 8(sp)
	.cfi_offset ra, -4
	.cfi_offset s0, -8
	addi	s0, sp, 16
	.cfi_def_cfa s0, 0
	sw	a0, -12(s0)
	addi	a0, zero, 256
	mv	a1, zero
	call	malloc
	sw	a0, -16(s0)
	lw	a0, -16(s0)
	lw	a2, -12(s0)
	lui	a1, %hi(.L.str.2)
	addi	a1, a1, %lo(.L.str.2)
	call	sprintf
	lw	a0, -16(s0)
	lw	s0, 8(sp)
	lw	ra, 12(sp)
	addi	sp, sp, 16
	ret
.Lfunc_end6:
	.size	toString, .Lfunc_end6-toString
	.cfi_endproc
                                        # -- End function
	.globl	malloc_                 # -- Begin function malloc_
	.p2align	2
	.type	malloc_,@function
malloc_:                                # @malloc_
	.cfi_startproc
# %bb.0:                                # %entry
	addi	sp, sp, -32
	.cfi_def_cfa_offset 32
	sw	ra, 28(sp)
	sw	s0, 24(sp)
	.cfi_offset ra, -4
	.cfi_offset s0, -8
	addi	s0, sp, 32
	.cfi_def_cfa s0, 0
	sw	a0, -12(s0)
	sw	a1, -16(s0)
	lw	a0, -16(s0)
	addi	a0, a0, 4
	srai	a1, a0, 31
	call	malloc
	sw	a0, -24(s0)
	lw	a0, -24(s0)
	addi	a0, a0, 4
	lw	a2, -16(s0)
	mv	a1, zero
	call	memset
	lw	a0, -24(s0)
	sw	a0, -32(s0)
	lw	a0, -12(s0)
	lw	a1, -32(s0)
	sw	a0, 0(a1)
	lw	a0, -24(s0)
	addi	a0, a0, 4
	lw	s0, 24(sp)
	lw	ra, 28(sp)
	addi	sp, sp, 32
	ret
.Lfunc_end7:
	.size	malloc_, .Lfunc_end7-malloc_
	.cfi_endproc
                                        # -- End function
	.globl	getArraySize            # -- Begin function getArraySize
	.p2align	2
	.type	getArraySize,@function
getArraySize:                           # @getArraySize
	.cfi_startproc
# %bb.0:                                # %entry
	addi	sp, sp, -32
	.cfi_def_cfa_offset 32
	sw	ra, 28(sp)
	sw	s0, 24(sp)
	.cfi_offset ra, -4
	.cfi_offset s0, -8
	addi	s0, sp, 32
	.cfi_def_cfa s0, 0
	sw	a0, -16(s0)
	lw	a0, -16(s0)
	addi	a0, a0, -4
	sw	a0, -24(s0)
	lw	a0, -24(s0)
	lw	a0, 0(a0)
	lw	s0, 24(sp)
	lw	ra, 28(sp)
	addi	sp, sp, 32
	ret
.Lfunc_end8:
	.size	getArraySize, .Lfunc_end8-getArraySize
	.cfi_endproc
                                        # -- End function
	.globl	string_length           # -- Begin function string_length
	.p2align	2
	.type	string_length,@function
string_length:                          # @string_length
	.cfi_startproc
# %bb.0:                                # %entry
	addi	sp, sp, -16
	.cfi_def_cfa_offset 16
	sw	ra, 12(sp)
	sw	s0, 8(sp)
	.cfi_offset ra, -4
	.cfi_offset s0, -8
	addi	s0, sp, 16
	.cfi_def_cfa s0, 0
	sw	a0, -16(s0)
	lw	a0, -16(s0)
	call	strlen
	lw	s0, 8(sp)
	lw	ra, 12(sp)
	addi	sp, sp, 16
	ret
.Lfunc_end9:
	.size	string_length, .Lfunc_end9-string_length
	.cfi_endproc
                                        # -- End function
	.globl	string_substring        # -- Begin function string_substring
	.p2align	2
	.type	string_substring,@function
string_substring:                       # @string_substring
	.cfi_startproc
# %bb.0:                                # %entry
	addi	sp, sp, -48
	.cfi_def_cfa_offset 48
	sw	ra, 44(sp)
	sw	s0, 40(sp)
	.cfi_offset ra, -4
	.cfi_offset s0, -8
	addi	s0, sp, 48
	.cfi_def_cfa s0, 0
	sw	a0, -16(s0)
	sw	a1, -20(s0)
	sw	a2, -24(s0)
	lw	a0, -24(s0)
	lw	a1, -20(s0)
	sub	a0, a0, a1
	addi	a0, a0, 1
	srai	a1, a0, 31
	call	malloc
	sw	a0, -32(s0)
	lw	a0, -20(s0)
	sw	a0, -36(s0)
	j	.LBB10_1
.LBB10_1:                               # %for.cond
                                        # =>This Inner Loop Header: Depth=1
	lw	a0, -36(s0)
	lw	a1, -24(s0)
	bge	a0, a1, .LBB10_4
	j	.LBB10_2
.LBB10_2:                               # %for.body
                                        #   in Loop: Header=BB10_1 Depth=1
	lw	a0, -16(s0)
	lw	a1, -36(s0)
	add	a0, a0, a1
	lb	a0, 0(a0)
	lw	a2, -32(s0)
	lw	a3, -20(s0)
	sub	a1, a1, a3
	add	a1, a2, a1
	sb	a0, 0(a1)
	j	.LBB10_3
.LBB10_3:                               # %for.inc
                                        #   in Loop: Header=BB10_1 Depth=1
	lw	a0, -36(s0)
	addi	a0, a0, 1
	sw	a0, -36(s0)
	j	.LBB10_1
.LBB10_4:                               # %for.end
	lw	a0, -32(s0)
	lw	a1, -24(s0)
	lw	a2, -20(s0)
	sub	a1, a1, a2
	add	a0, a0, a1
	sb	zero, 0(a0)
	lw	a0, -32(s0)
	lw	s0, 40(sp)
	lw	ra, 44(sp)
	addi	sp, sp, 48
	ret
.Lfunc_end10:
	.size	string_substring, .Lfunc_end10-string_substring
	.cfi_endproc
                                        # -- End function
	.globl	string_parseInt         # -- Begin function string_parseInt
	.p2align	2
	.type	string_parseInt,@function
string_parseInt:                        # @string_parseInt
	.cfi_startproc
# %bb.0:                                # %entry
	addi	sp, sp, -32
	.cfi_def_cfa_offset 32
	sw	ra, 28(sp)
	sw	s0, 24(sp)
	.cfi_offset ra, -4
	.cfi_offset s0, -8
	addi	s0, sp, 32
	.cfi_def_cfa s0, 0
	sw	a0, -16(s0)
	lw	a0, -16(s0)
	lui	a1, %hi(.L.str.2)
	addi	a1, a1, %lo(.L.str.2)
	addi	a2, s0, -20
	call	__isoc99_sscanf
	lw	a0, -20(s0)
	lw	s0, 24(sp)
	lw	ra, 28(sp)
	addi	sp, sp, 32
	ret
.Lfunc_end11:
	.size	string_parseInt, .Lfunc_end11-string_parseInt
	.cfi_endproc
                                        # -- End function
	.globl	string_ord              # -- Begin function string_ord
	.p2align	2
	.type	string_ord,@function
string_ord:                             # @string_ord
	.cfi_startproc
# %bb.0:                                # %entry
	addi	sp, sp, -32
	.cfi_def_cfa_offset 32
	sw	ra, 28(sp)
	sw	s0, 24(sp)
	.cfi_offset ra, -4
	.cfi_offset s0, -8
	addi	s0, sp, 32
	.cfi_def_cfa s0, 0
	sw	a0, -16(s0)
	sw	a1, -20(s0)
	lw	a0, -16(s0)
	lw	a1, -20(s0)
	add	a0, a0, a1
	lb	a0, 0(a0)
	lw	s0, 24(sp)
	lw	ra, 28(sp)
	addi	sp, sp, 32
	ret
.Lfunc_end12:
	.size	string_ord, .Lfunc_end12-string_ord
	.cfi_endproc
                                        # -- End function
	.globl	string_concat           # -- Begin function string_concat
	.p2align	2
	.type	string_concat,@function
string_concat:                          # @string_concat
	.cfi_startproc
# %bb.0:                                # %entry
	addi	sp, sp, -48
	.cfi_def_cfa_offset 48
	sw	ra, 44(sp)
	sw	s0, 40(sp)
	sw	s1, 36(sp)
	sw	s2, 32(sp)
	.cfi_offset ra, -4
	.cfi_offset s0, -8
	.cfi_offset s1, -12
	.cfi_offset s2, -16
	addi	s0, sp, 48
	.cfi_def_cfa s0, 0
	sw	a0, -24(s0)
	sw	a1, -32(s0)
	lw	a0, -24(s0)
	call	strlen
	mv	s1, a0
	mv	s2, a1
	lw	a0, -32(s0)
	call	strlen
	add	a1, s2, a1
	add	a2, s1, a0
	sltu	a0, a2, s1
	add	a1, a1, a0
	addi	a0, a2, 1
	sltu	a2, a0, a2
	add	a1, a1, a2
	call	malloc
	sw	a0, -40(s0)
	lw	a0, -40(s0)
	lw	a1, -24(s0)
	call	strcpy
	lw	a0, -40(s0)
	lw	a1, -32(s0)
	call	strcat
	lw	a0, -40(s0)
	lw	s2, 32(sp)
	lw	s1, 36(sp)
	lw	s0, 40(sp)
	lw	ra, 44(sp)
	addi	sp, sp, 48
	ret
.Lfunc_end13:
	.size	string_concat, .Lfunc_end13-string_concat
	.cfi_endproc
                                        # -- End function
	.globl	string_equal            # -- Begin function string_equal
	.p2align	2
	.type	string_equal,@function
string_equal:                           # @string_equal
	.cfi_startproc
# %bb.0:                                # %entry
	addi	sp, sp, -32
	.cfi_def_cfa_offset 32
	sw	ra, 28(sp)
	sw	s0, 24(sp)
	.cfi_offset ra, -4
	.cfi_offset s0, -8
	addi	s0, sp, 32
	.cfi_def_cfa s0, 0
	sw	a0, -16(s0)
	sw	a1, -24(s0)
	lw	a0, -16(s0)
	lw	a1, -24(s0)
	call	strcmp
	seqz	a0, a0
	lw	s0, 24(sp)
	lw	ra, 28(sp)
	addi	sp, sp, 32
	ret
.Lfunc_end14:
	.size	string_equal, .Lfunc_end14-string_equal
	.cfi_endproc
                                        # -- End function
	.globl	string_nequal           # -- Begin function string_nequal
	.p2align	2
	.type	string_nequal,@function
string_nequal:                          # @string_nequal
	.cfi_startproc
# %bb.0:                                # %entry
	addi	sp, sp, -32
	.cfi_def_cfa_offset 32
	sw	ra, 28(sp)
	sw	s0, 24(sp)
	.cfi_offset ra, -4
	.cfi_offset s0, -8
	addi	s0, sp, 32
	.cfi_def_cfa s0, 0
	sw	a0, -16(s0)
	sw	a1, -24(s0)
	lw	a0, -16(s0)
	lw	a1, -24(s0)
	call	strcmp
	snez	a0, a0
	lw	s0, 24(sp)
	lw	ra, 28(sp)
	addi	sp, sp, 32
	ret
.Lfunc_end15:
	.size	string_nequal, .Lfunc_end15-string_nequal
	.cfi_endproc
                                        # -- End function
	.globl	string_lessthan         # -- Begin function string_lessthan
	.p2align	2
	.type	string_lessthan,@function
string_lessthan:                        # @string_lessthan
	.cfi_startproc
# %bb.0:                                # %entry
	addi	sp, sp, -32
	.cfi_def_cfa_offset 32
	sw	ra, 28(sp)
	sw	s0, 24(sp)
	.cfi_offset ra, -4
	.cfi_offset s0, -8
	addi	s0, sp, 32
	.cfi_def_cfa s0, 0
	sw	a0, -16(s0)
	sw	a1, -24(s0)
	lw	a0, -16(s0)
	lw	a1, -24(s0)
	call	strcmp
	srli	a0, a0, 31
	lw	s0, 24(sp)
	lw	ra, 28(sp)
	addi	sp, sp, 32
	ret
.Lfunc_end16:
	.size	string_lessthan, .Lfunc_end16-string_lessthan
	.cfi_endproc
                                        # -- End function
	.globl	string_greaterthan      # -- Begin function string_greaterthan
	.p2align	2
	.type	string_greaterthan,@function
string_greaterthan:                     # @string_greaterthan
	.cfi_startproc
# %bb.0:                                # %entry
	addi	sp, sp, -32
	.cfi_def_cfa_offset 32
	sw	ra, 28(sp)
	sw	s0, 24(sp)
	.cfi_offset ra, -4
	.cfi_offset s0, -8
	addi	s0, sp, 32
	.cfi_def_cfa s0, 0
	sw	a0, -16(s0)
	sw	a1, -24(s0)
	lw	a0, -16(s0)
	lw	a1, -24(s0)
	call	strcmp
	sgtz	a0, a0
	lw	s0, 24(sp)
	lw	ra, 28(sp)
	addi	sp, sp, 32
	ret
.Lfunc_end17:
	.size	string_greaterthan, .Lfunc_end17-string_greaterthan
	.cfi_endproc
                                        # -- End function
	.globl	string_notgreaterthan   # -- Begin function string_notgreaterthan
	.p2align	2
	.type	string_notgreaterthan,@function
string_notgreaterthan:                  # @string_notgreaterthan
	.cfi_startproc
# %bb.0:                                # %entry
	addi	sp, sp, -32
	.cfi_def_cfa_offset 32
	sw	ra, 28(sp)
	sw	s0, 24(sp)
	.cfi_offset ra, -4
	.cfi_offset s0, -8
	addi	s0, sp, 32
	.cfi_def_cfa s0, 0
	sw	a0, -16(s0)
	sw	a1, -24(s0)
	lw	a0, -16(s0)
	lw	a1, -24(s0)
	call	strcmp
	slti	a0, a0, 1
	lw	s0, 24(sp)
	lw	ra, 28(sp)
	addi	sp, sp, 32
	ret
.Lfunc_end18:
	.size	string_notgreaterthan, .Lfunc_end18-string_notgreaterthan
	.cfi_endproc
                                        # -- End function
	.globl	string_notlessthan      # -- Begin function string_notlessthan
	.p2align	2
	.type	string_notlessthan,@function
string_notlessthan:                     # @string_notlessthan
	.cfi_startproc
# %bb.0:                                # %entry
	addi	sp, sp, -32
	.cfi_def_cfa_offset 32
	sw	ra, 28(sp)
	sw	s0, 24(sp)
	.cfi_offset ra, -4
	.cfi_offset s0, -8
	addi	s0, sp, 32
	.cfi_def_cfa s0, 0
	sw	a0, -16(s0)
	sw	a1, -24(s0)
	lw	a0, -16(s0)
	lw	a1, -24(s0)
	call	strcmp
	not	a0, a0
	srli	a0, a0, 31
	lw	s0, 24(sp)
	lw	ra, 28(sp)
	addi	sp, sp, 32
	ret
.Lfunc_end19:
	.size	string_notlessthan, .Lfunc_end19-string_notlessthan
	.cfi_endproc
                                        # -- End function
	.type	MAX_LEN,@object         # @MAX_LEN
	.section	.rodata,"a",@progbits
	.globl	MAX_LEN
	.p2align	2
MAX_LEN:
	.word	256                     # 0x100
	.size	MAX_LEN, 4

	.type	.L.str,@object          # @.str
	.section	.rodata.str1.1,"aMS",@progbits,1
.L.str:
	.asciz	"%s"
	.size	.L.str, 3

	.type	.L.str.1,@object        # @.str.1
.L.str.1:
	.asciz	"%s\n"
	.size	.L.str.1, 4

	.type	.L.str.2,@object        # @.str.2
.L.str.2:
	.asciz	"%d"
	.size	.L.str.2, 3

	.type	.L.str.3,@object        # @.str.3
.L.str.3:
	.asciz	"%d\n"
	.size	.L.str.3, 4

	.ident	"clang version 10.0.0-4ubuntu1 "
	.section	".note.GNU-stack","",@progbits
